; Function Attrs: nounwind uwtable
define internal ptr @tuplegetter_reduce(ptr noundef readonly captures(none) %0, ptr readnone captures(none) %1) #0 {
  %3 = getelementptr i8, ptr %0, i64 8
  %.val = load ptr, ptr %3, align 8, !tbaa !22
  %4 = getelementptr inbounds nuw i8, ptr %0, i64 16
  %5 = load i64, ptr %4, align 8, !tbaa !116
  %6 = getelementptr inbounds nuw i8, ptr %0, i64 24
  %7 = load ptr, ptr %6, align 8, !tbaa !118
  %8 = tail call ptr (ptr, ...) @Py_BuildValue(ptr noundef nonnull @.str.76, ptr noundef %.val, i64 noundef %5, ptr noundef %7) #9
  ret ptr %8
}